target datalayout = "e-m:e-p270:32:32-p271:32:32-p272:64:64-i64:64-i128:128-f80:128-n8:16:32:64-S128"
target triple = "x86_64-pc-linux-gnu"

; Function Attrs: mustprogress nounwind uwtable
define hidden noundef i32 @_ZNK5clang7targets17AArch64TargetInfo22checkCallingConventionENS_11CallingConvE(ptr noundef nonnull align 8 dereferenceable(600) %0, i32 noundef %1) unnamed_addr #0 align 2 {
  %3 = alloca i32, align 4
  %4 = alloca ptr, align 8
  %5 = alloca i32, align 4
  store ptr %0, ptr %4, align 8
  store i32 %1, ptr %5, align 4
  %6 = load i32, ptr %5, align 4
  switch i32 %6, label %8 [
    i32 0, label %7
    i32 14, label %7
    i32 15, label %7
    i32 16, label %7
    i32 17, label %7
    i32 22, label %7
    i32 13, label %7
    i32 18, label %7
    i32 19, label %7
    i32 6, label %7
  ]

7:                                                ; preds = %2, %2, %2, %2, %2, %2, %2, %2, %2, %2
  store i32 0, ptr %3, align 4
  br label %9

8:                                                ; preds = %2
  store i32 1, ptr %3, align 4
  br label %9

9:                                                ; preds = %8, %7
  %10 = load i32, ptr %3, align 4
  ret i32 %10
}