; Function Attrs: mustprogress nofree norecurse nosync nounwind willreturn memory(none) uwtable
define hidden noundef range(i32 0, 2) i32 @_ZNK5clang7targets17AArch64TargetInfo22checkCallingConventionENS_11CallingConvE(ptr nonnull readnone align 8 captures(none) %0, i32 noundef %1) unnamed_addr #8 align 2 {
  %3 = icmp ult i32 %1, 23
  br i1 %3, label %switch.lookup, label %5

switch.lookup:                                    ; preds = %2
  %4 = zext nneg i32 %1 to i64
  %switch.gep = getelementptr inbounds nuw [23 x i32], ptr @switch.table._ZNK5clang7targets17AArch64TargetInfo22checkCallingConventionENS_11CallingConvE, i64 0, i64 %4
  %switch.load = load i32, ptr %switch.gep, align 4
  br label %5

5:                                                ; preds = %2, %switch.lookup
  %.0 = phi i32 [ %switch.load, %switch.lookup ], [ 1, %2 ]
  ret i32 %.0
}